target datalayout = "e-m:e-p270:32:32-p271:32:32-p272:64:64-i64:64-i128:128-f80:128-n8:16:32:64-S128"
target triple = "x86_64-pc-linux-gnu"

@.str = private unnamed_addr constant [47 x i8] c"src/hotspot/share/jvmci/jvmciCodeInstaller.cpp\00", align 1
@.str.102 = private unnamed_addr constant [31 x i8] c"unknown object patch tag: %d%s\00", align 1

; Function Attrs: mustprogress nounwind uwtable
define hidden noundef zeroext i8 @_ZN13CodeInstaller15as_read_oop_tagEP25HotSpotCompiledCodeStreamhP8JVMCIEnv(ptr noundef %0, i8 noundef zeroext %1, ptr noundef %2) #1 align 2 {
  %4 = alloca i8, align 1
  %5 = alloca ptr, align 8
  %6 = alloca i8, align 1
  %7 = alloca ptr, align 8
  store ptr %0, ptr %5, align 8
  store i8 %1, ptr %6, align 1
  store ptr %2, ptr %7, align 8
  %8 = load i8, ptr %6, align 1
  %9 = zext i8 %8 to i32
  switch i32 %9, label %13 [
    i32 24, label %10
    i32 26, label %10
    i32 25, label %11
    i32 27, label %11
    i32 29, label %12
    i32 28, label %12
  ]

10:                                               ; preds = %3, %3
  store i8 17, ptr %4, align 1
  br label %19

11:                                               ; preds = %3, %3
  store i8 18, ptr %4, align 1
  br label %19

12:                                               ; preds = %3, %3
  store i8 16, ptr %4, align 1
  br label %19

13:                                               ; preds = %3
  %14 = load ptr, ptr %7, align 8
  %15 = load i8, ptr %6, align 1
  %16 = zext i8 %15 to i32
  %17 = load ptr, ptr %5, align 8
  %18 = call noundef ptr @_ZNK25HotSpotCompiledCodeStream7contextEv(ptr noundef nonnull align 8 dereferenceable(64) %17)
  call void (ptr, ptr, i32, ptr, ...) @_ZN8JVMCIEnv12fthrow_errorEPKciS1_z(ptr noundef nonnull align 8 dereferenceable(64) %14, ptr noundef @.str, i32 noundef 887, ptr noundef @.str.102, i32 noundef %16, ptr noundef %18)
  store i8 0, ptr %4, align 1
  br label %19

19:                                               ; preds = %13, %12, %11, %10
  %20 = load i8, ptr %4, align 1
  ret i8 %20
}