; Function Attrs: mustprogress nounwind uwtable
define hidden noundef zeroext range(i8 0, 19) i8 @_ZN13CodeInstaller15as_read_oop_tagEP25HotSpotCompiledCodeStreamhP8JVMCIEnv(ptr nocapture noundef readonly %0, i8 noundef zeroext %1, ptr noundef %2) local_unnamed_addr #2 align 2 {
  %switch.tableidx = add i8 %1, -24
  %4 = icmp ult i8 %switch.tableidx, 6
  br i1 %4, label %switch.lookup, label %5

5:                                                ; preds = %3
  %6 = zext i8 %1 to i32
  %7 = tail call noundef ptr @_ZNK25HotSpotCompiledCodeStream7contextEv(ptr noundef nonnull align 8 dereferenceable(64) %0)
  tail call void (ptr, ptr, i32, ptr, ...) @_ZN8JVMCIEnv12fthrow_errorEPKciS1_z(ptr noundef nonnull align 8 dereferenceable(64) %2, ptr noundef nonnull @.str, i32 noundef 887, ptr noundef nonnull @.str.102, i32 noundef %6, ptr noundef %7) #10
  br label %9

switch.lookup:                                    ; preds = %3
  %8 = shl nuw nsw i8 %switch.tableidx, 3
  %switch.shiftamt = zext nneg i8 %8 to i48
  %switch.downshift = lshr i48 17661208629777, %switch.shiftamt
  %switch.masked = trunc i48 %switch.downshift to i8
  br label %9

9:                                                ; preds = %switch.lookup, %5
  %.0 = phi i8 [ 0, %5 ], [ %switch.masked, %switch.lookup ]
  ret i8 %.0
}